; Function Attrs: nounwind uwtable
define internal fastcc nonnull ptr @expand_(ptr noundef %0, i64 noundef %1) unnamed_addr #0 {
  %.not = icmp eq ptr %0, null
  br i1 %.not, label %3, label %8

3:                                                ; preds = %2
  %4 = shl nuw nsw i64 %1, 3
  %5 = add nuw nsw i64 %4, 8
  %6 = tail call ptr @calloc_arena(i64 noundef %5) #10
  %7 = getelementptr inbounds i8, ptr %6, i64 4
  store i32 8, ptr %7, align 4
  br label %10

8:                                                ; preds = %2
  %9 = getelementptr inbounds i8, ptr %0, i64 -8
  %.phi.trans.insert = getelementptr inbounds i8, ptr %0, i64 -4
  %.pre = load i32, ptr %.phi.trans.insert, align 4
  br label %10

10:                                               ; preds = %8, %3
  %11 = phi i32 [ %.pre, %8 ], [ 8, %3 ]
  %.0 = phi ptr [ %9, %8 ], [ %6, %3 ]
  %12 = load i32, ptr %.0, align 4
  %13 = icmp eq i32 %12, %11
  br i1 %13, label %14, label %28

14:                                               ; preds = %10
  %15 = getelementptr inbounds i8, ptr %.0, i64 4
  %16 = shl i32 %11, 1
  %17 = zext i32 %16 to i64
  %18 = mul nuw nsw i64 %17, %1
  %19 = add nuw nsw i64 %18, 8
  %20 = tail call ptr @calloc_arena(i64 noundef %19) #10
  %21 = getelementptr inbounds i8, ptr %20, i64 4
  store i32 %16, ptr %21, align 4
  %22 = load i32, ptr %15, align 4
  %23 = zext i32 %22 to i64
  %24 = mul nuw nsw i64 %23, %1
  %25 = add nuw nsw i64 %24, 8
  tail call void @llvm.memcpy.p0.p0.i64(ptr noundef nonnull align 4 dereferenceable(1) %20, ptr noundef nonnull align 4 dereferenceable(1) %.0, i64 %25, i1 false)
  %26 = load i32, ptr %21, align 4
  %27 = shl i32 %26, 1
  store i32 %27, ptr %21, align 4
  %.pre18 = load i32, ptr %20, align 4
  br label %28

28:                                               ; preds = %14, %10
  %29 = phi i32 [ %.pre18, %14 ], [ %12, %10 ]
  %.1 = phi ptr [ %20, %14 ], [ %.0, %10 ]
  %30 = add i32 %29, 1
  store i32 %30, ptr %.1, align 4
  %31 = getelementptr inbounds i8, ptr %.1, i64 8
  ret ptr %31
}